target datalayout = "e-m:e-p270:32:32-p271:32:32-p272:64:64-i64:64-i128:128-f80:128-n8:16:32:64-S128"
target triple = "x86_64-pc-linux-gnu"

%"struct.llvm::TargetTransformInfo::PeelingPreferences" = type { i32, i8, i8, i8 }

; Function Attrs: mustprogress nounwind uwtable
define linkonce_odr hidden void @_ZN4llvm16BasicTTIImplBaseINS_12RISCVTTIImplEE21getPeelingPreferencesEPNS_4LoopERNS_15ScalarEvolutionERNS_19TargetTransformInfo18PeelingPreferencesE(ptr noundef nonnull align 8 dereferenceable(16) %0, ptr noundef %1, ptr noundef nonnull align 8 dereferenceable(1392) %2, ptr noundef nonnull align 4 dereferenceable(8) %3) #1 comdat align 2 {
  %5 = alloca ptr, align 8
  %6 = alloca ptr, align 8
  %7 = alloca ptr, align 8
  %8 = alloca ptr, align 8
  store ptr %0, ptr %5, align 8
  store ptr %1, ptr %6, align 8
  store ptr %2, ptr %7, align 8
  store ptr %3, ptr %8, align 8
  %9 = load ptr, ptr %8, align 8
  %10 = getelementptr inbounds nuw %"struct.llvm::TargetTransformInfo::PeelingPreferences", ptr %9, i32 0, i32 0
  store i32 0, ptr %10, align 4
  %11 = load ptr, ptr %8, align 8
  %12 = getelementptr inbounds nuw %"struct.llvm::TargetTransformInfo::PeelingPreferences", ptr %11, i32 0, i32 1
  store i8 1, ptr %12, align 4
  %13 = load ptr, ptr %8, align 8
  %14 = getelementptr inbounds nuw %"struct.llvm::TargetTransformInfo::PeelingPreferences", ptr %13, i32 0, i32 2
  store i8 0, ptr %14, align 1
  %15 = load ptr, ptr %8, align 8
  %16 = getelementptr inbounds nuw %"struct.llvm::TargetTransformInfo::PeelingPreferences", ptr %15, i32 0, i32 3
  store i8 1, ptr %16, align 2
  ret void
}

; Function Attrs: mustprogress nounwind uwtable
define dso_local void @_ZN4llvm12RISCVTTIImpl21getPeelingPreferencesEPNS_4LoopERNS_15ScalarEvolutionERNS_19TargetTransformInfo18PeelingPreferencesE(ptr noundef nonnull align 8 dereferenceable(32) %0, ptr noundef %1, ptr noundef nonnull align 8 dereferenceable(1392) %2, ptr noundef nonnull align 4 dereferenceable(8) %3) #1 align 2 {
  %5 = alloca ptr, align 8
  %6 = alloca ptr, align 8
  %7 = alloca ptr, align 8
  %8 = alloca ptr, align 8
  store ptr %0, ptr %5, align 8
  store ptr %1, ptr %6, align 8
  store ptr %2, ptr %7, align 8
  store ptr %3, ptr %8, align 8
  %9 = load ptr, ptr %5, align 8
  %10 = load ptr, ptr %6, align 8
  %11 = load ptr, ptr %7, align 8
  %12 = load ptr, ptr %8, align 8
  call void @_ZN4llvm16BasicTTIImplBaseINS_12RISCVTTIImplEE21getPeelingPreferencesEPNS_4LoopERNS_15ScalarEvolutionERNS_19TargetTransformInfo18PeelingPreferencesE(ptr noundef nonnull align 8 dereferenceable(16) %9, ptr noundef %10, ptr noundef nonnull align 8 dereferenceable(1392) %11, ptr noundef nonnull align 4 dereferenceable(8) %12)
  ret void
}