; Function Attrs: mustprogress nofree norecurse nosync nounwind willreturn memory(argmem: write) uwtable
define dso_local void @_ZN4llvm12RISCVTTIImpl21getPeelingPreferencesEPNS_4LoopERNS_15ScalarEvolutionERNS_19TargetTransformInfo18PeelingPreferencesE(ptr nocapture noundef nonnull readnone align 8 dereferenceable(32) %0, ptr nocapture noundef readnone %1, ptr nocapture noundef nonnull readnone align 8 dereferenceable(1392) %2, ptr nocapture noundef nonnull writeonly align 4 dereferenceable(8) %3) local_unnamed_addr #9 align 2 {
  store i32 0, ptr %3, align 4
  %5 = getelementptr inbounds nuw i8, ptr %3, i64 4
  store i8 1, ptr %5, align 4
  %6 = getelementptr inbounds nuw i8, ptr %3, i64 5
  store i8 0, ptr %6, align 1
  %7 = getelementptr inbounds nuw i8, ptr %3, i64 6
  store i8 1, ptr %7, align 2
  ret void
}